target datalayout = "e-m:e-p270:32:32-p271:32:32-p272:64:64-i64:64-i128:128-f80:128-n8:16:32:64-S128"
target triple = "x86_64-pc-linux-gnu"

%struct.jpeg_decompress_struct = type { ptr, ptr, ptr, ptr, i32, i32, ptr, i32, i32, i32, i32, i32, i32, i32, double, i32, i32, i32, i32, i32, i32, i32, i32, i32, i32, i32, i32, i32, i32, i32, i32, i32, i32, ptr, i32, i32, i32, i32, i32, ptr, [4 x ptr], [4 x ptr], [4 x ptr], i32, ptr, i32, i32, [16 x i8], [16 x i8], [16 x i8], i32, i32, i8, i8, i8, i16, i16, i32, i8, i32, ptr, i32, i32, i32, i32, ptr, i32, [4 x ptr], i32, i32, i32, [10 x i32], i32, i32, i32, i32, i32, ptr, ptr, ptr, ptr, ptr, ptr, ptr, ptr, ptr, ptr, ptr }
%struct.arith_entropy_decoder = type { %struct.jpeg_entropy_decoder, i64, i64, i32, [4 x i32], [4 x i32], i32, [16 x ptr], [16 x ptr], [4 x i8] }
%struct.jpeg_entropy_decoder = type { ptr, ptr, ptr, ptr, i32 }
%struct.jpeg_error_mgr = type { ptr, ptr, ptr, ptr, ptr, i32, %union.anon, i32, i64, ptr, i32, ptr, i32, i32 }
%union.anon = type { [8 x i32], [48 x i8] }
%struct.jpeg_component_info = type { i32, i32, i32, i32, i32, i32, i32, i32, i32, i32, i32, i32, i32, i32, i32, i32, i32, i32, i32, ptr, ptr }
%struct.jpeg_marker_reader = type { ptr, ptr, ptr, i32, i32, i32, i32 }

; Function Attrs: nounwind uwtable
define internal void @process_restart(ptr noundef %0) #0 {
  %2 = alloca ptr, align 8
  %3 = alloca ptr, align 8
  %4 = alloca i32, align 4
  %5 = alloca ptr, align 8
  store ptr %0, ptr %2, align 8, !tbaa !3
  call void @llvm.lifetime.start.p0(i64 8, ptr %3) #3
  %6 = load ptr, ptr %2, align 8, !tbaa !3
  %7 = getelementptr inbounds nuw %struct.jpeg_decompress_struct, ptr %6, i32 0, i32 83
  %8 = load ptr, ptr %7, align 8, !tbaa !36
  store ptr %8, ptr %3, align 8, !tbaa !35
  call void @llvm.lifetime.start.p0(i64 4, ptr %4) #3
  call void @llvm.lifetime.start.p0(i64 8, ptr %5) #3
  %9 = load ptr, ptr %2, align 8, !tbaa !3
  %10 = getelementptr inbounds nuw %struct.jpeg_decompress_struct, ptr %9, i32 0, i32 82
  %11 = load ptr, ptr %10, align 8, !tbaa !100
  %12 = getelementptr inbounds nuw %struct.jpeg_marker_reader, ptr %11, i32 0, i32 2
  %13 = load ptr, ptr %12, align 8, !tbaa !101
  %14 = load ptr, ptr %2, align 8, !tbaa !3
  %15 = call i32 %13(ptr noundef %14)
  %16 = icmp ne i32 %15, 0
  br i1 %16, label %28, label %17

17:                                               ; preds = %1
  %18 = load ptr, ptr %2, align 8, !tbaa !3
  %19 = getelementptr inbounds nuw %struct.jpeg_decompress_struct, ptr %18, i32 0, i32 0
  %20 = load ptr, ptr %19, align 8, !tbaa !56
  %21 = getelementptr inbounds nuw %struct.jpeg_error_mgr, ptr %20, i32 0, i32 5
  store i32 24, ptr %21, align 8, !tbaa !57
  %22 = load ptr, ptr %2, align 8, !tbaa !3
  %23 = getelementptr inbounds nuw %struct.jpeg_decompress_struct, ptr %22, i32 0, i32 0
  %24 = load ptr, ptr %23, align 8, !tbaa !56
  %25 = getelementptr inbounds nuw %struct.jpeg_error_mgr, ptr %24, i32 0, i32 0
  %26 = load ptr, ptr %25, align 8, !tbaa !59
  %27 = load ptr, ptr %2, align 8, !tbaa !3
  call void %26(ptr noundef %27)
  br label %28

28:                                               ; preds = %17, %1
  store i32 0, ptr %4, align 4, !tbaa !40
  br label %29

29:                                               ; preds = %95, %28
  %30 = load i32, ptr %4, align 4, !tbaa !40
  %31 = load ptr, ptr %2, align 8, !tbaa !3
  %32 = getelementptr inbounds nuw %struct.jpeg_decompress_struct, ptr %31, i32 0, i32 66
  %33 = load i32, ptr %32, align 8, !tbaa !53
  %34 = icmp slt i32 %30, %33
  br i1 %34, label %35, label %98

35:                                               ; preds = %29
  %36 = load ptr, ptr %2, align 8, !tbaa !3
  %37 = getelementptr inbounds nuw %struct.jpeg_decompress_struct, ptr %36, i32 0, i32 67
  %38 = load i32, ptr %4, align 4, !tbaa !40
  %39 = sext i32 %38 to i64
  %40 = getelementptr inbounds [4 x ptr], ptr %37, i64 0, i64 %39
  %41 = load ptr, ptr %40, align 8, !tbaa !35
  store ptr %41, ptr %5, align 8, !tbaa !35
  %42 = load ptr, ptr %2, align 8, !tbaa !3
  %43 = getelementptr inbounds nuw %struct.jpeg_decompress_struct, ptr %42, i32 0, i32 45
  %44 = load i32, ptr %43, align 8, !tbaa !45
  %45 = icmp ne i32 %44, 0
  br i1 %45, label %46, label %56

46:                                               ; preds = %35
  %47 = load ptr, ptr %2, align 8, !tbaa !3
  %48 = getelementptr inbounds nuw %struct.jpeg_decompress_struct, ptr %47, i32 0, i32 72
  %49 = load i32, ptr %48, align 4, !tbaa !51
  %50 = icmp eq i32 %49, 0
  br i1 %50, label %51, label %75

51:                                               ; preds = %46
  %52 = load ptr, ptr %2, align 8, !tbaa !3
  %53 = getelementptr inbounds nuw %struct.jpeg_decompress_struct, ptr %52, i32 0, i32 74
  %54 = load i32, ptr %53, align 4, !tbaa !54
  %55 = icmp eq i32 %54, 0
  br i1 %55, label %56, label %75

56:                                               ; preds = %51, %35
  %57 = load ptr, ptr %3, align 8, !tbaa !35
  %58 = getelementptr inbounds nuw %struct.arith_entropy_decoder, ptr %57, i32 0, i32 7
  %59 = load ptr, ptr %5, align 8, !tbaa !35
  %60 = getelementptr inbounds nuw %struct.jpeg_component_info, ptr %59, i32 0, i32 5
  %61 = load i32, ptr %60, align 4, !tbaa !68
  %62 = sext i32 %61 to i64
  %63 = getelementptr inbounds [16 x ptr], ptr %58, i64 0, i64 %62
  %64 = load ptr, ptr %63, align 8, !tbaa !41
  call void @llvm.memset.p0.i64(ptr align 1 %64, i8 0, i64 64, i1 false)
  %65 = load ptr, ptr %3, align 8, !tbaa !35
  %66 = getelementptr inbounds nuw %struct.arith_entropy_decoder, ptr %65, i32 0, i32 4
  %67 = load i32, ptr %4, align 4, !tbaa !40
  %68 = sext i32 %67 to i64
  %69 = getelementptr inbounds [4 x i32], ptr %66, i64 0, i64 %68
  store i32 0, ptr %69, align 4, !tbaa !40
  %70 = load ptr, ptr %3, align 8, !tbaa !35
  %71 = getelementptr inbounds nuw %struct.arith_entropy_decoder, ptr %70, i32 0, i32 5
  %72 = load i32, ptr %4, align 4, !tbaa !40
  %73 = sext i32 %72 to i64
  %74 = getelementptr inbounds [4 x i32], ptr %71, i64 0, i64 %73
  store i32 0, ptr %74, align 4, !tbaa !40
  br label %75

75:                                               ; preds = %56, %51, %46
  %76 = load ptr, ptr %2, align 8, !tbaa !3
  %77 = getelementptr inbounds nuw %struct.jpeg_decompress_struct, ptr %76, i32 0, i32 45
  %78 = load i32, ptr %77, align 8, !tbaa !45
  %79 = icmp ne i32 %78, 0
  br i1 %79, label %80, label %85

80:                                               ; preds = %75
  %81 = load ptr, ptr %2, align 8, !tbaa !3
  %82 = getelementptr inbounds nuw %struct.jpeg_decompress_struct, ptr %81, i32 0, i32 72
  %83 = load i32, ptr %82, align 4, !tbaa !51
  %84 = icmp ne i32 %83, 0
  br i1 %84, label %85, label %94

85:                                               ; preds = %80, %75
  %86 = load ptr, ptr %3, align 8, !tbaa !35
  %87 = getelementptr inbounds nuw %struct.arith_entropy_decoder, ptr %86, i32 0, i32 8
  %88 = load ptr, ptr %5, align 8, !tbaa !35
  %89 = getelementptr inbounds nuw %struct.jpeg_component_info, ptr %88, i32 0, i32 6
  %90 = load i32, ptr %89, align 8, !tbaa !69
  %91 = sext i32 %90 to i64
  %92 = getelementptr inbounds [16 x ptr], ptr %87, i64 0, i64 %91
  %93 = load ptr, ptr %92, align 8, !tbaa !41
  call void @llvm.memset.p0.i64(ptr align 1 %93, i8 0, i64 256, i1 false)
  br label %94

94:                                               ; preds = %85, %80
  br label %95

95:                                               ; preds = %94
  %96 = load i32, ptr %4, align 4, !tbaa !40
  %97 = add nsw i32 %96, 1
  store i32 %97, ptr %4, align 4, !tbaa !40
  br label %29, !llvm.loop !103

98:                                               ; preds = %29
  %99 = load ptr, ptr %3, align 8, !tbaa !35
  %100 = getelementptr inbounds nuw %struct.arith_entropy_decoder, ptr %99, i32 0, i32 1
  store i64 0, ptr %100, align 8, !tbaa !71
  %101 = load ptr, ptr %3, align 8, !tbaa !35
  %102 = getelementptr inbounds nuw %struct.arith_entropy_decoder, ptr %101, i32 0, i32 2
  store i64 0, ptr %102, align 8, !tbaa !72
  %103 = load ptr, ptr %3, align 8, !tbaa !35
  %104 = getelementptr inbounds nuw %struct.arith_entropy_decoder, ptr %103, i32 0, i32 3
  store i32 -16, ptr %104, align 8, !tbaa !73
  %105 = load ptr, ptr %2, align 8, !tbaa !3
  %106 = getelementptr inbounds nuw %struct.jpeg_decompress_struct, ptr %105, i32 0, i32 50
  %107 = load i32, ptr %106, align 8, !tbaa !75
  %108 = load ptr, ptr %3, align 8, !tbaa !35
  %109 = getelementptr inbounds nuw %struct.arith_entropy_decoder, ptr %108, i32 0, i32 6
  store i32 %107, ptr %109, align 4, !tbaa !76
  call void @llvm.lifetime.end.p0(i64 8, ptr %5) #3
  call void @llvm.lifetime.end.p0(i64 4, ptr %4) #3
  call void @llvm.lifetime.end.p0(i64 8, ptr %3) #3
  ret void
}

; Function Attrs: nounwind uwtable
define internal i32 @decode_mcu_DC_refine(ptr noundef %0, ptr noundef %1) #0 {
  %3 = alloca ptr, align 8
  %4 = alloca ptr, align 8
  %5 = alloca ptr, align 8
  %6 = alloca ptr, align 8
  %7 = alloca i32, align 4
  %8 = alloca i32, align 4
  store ptr %0, ptr %3, align 8, !tbaa !3
  store ptr %1, ptr %4, align 8, !tbaa !77
  call void @llvm.lifetime.start.p0(i64 8, ptr %5) #3
  %9 = load ptr, ptr %3, align 8, !tbaa !3
  %10 = getelementptr inbounds nuw %struct.jpeg_decompress_struct, ptr %9, i32 0, i32 83
  %11 = load ptr, ptr %10, align 8, !tbaa !36
  store ptr %11, ptr %5, align 8, !tbaa !35
  call void @llvm.lifetime.start.p0(i64 8, ptr %6) #3
  call void @llvm.lifetime.start.p0(i64 4, ptr %7) #3
  call void @llvm.lifetime.start.p0(i64 4, ptr %8) #3
  %12 = load ptr, ptr %3, align 8, !tbaa !3
  %13 = getelementptr inbounds nuw %struct.jpeg_decompress_struct, ptr %12, i32 0, i32 50
  %14 = load i32, ptr %13, align 8, !tbaa !75
  %15 = icmp ne i32 %14, 0
  br i1 %15, label %16, label %28

16:                                               ; preds = %2
  %17 = load ptr, ptr %5, align 8, !tbaa !35
  %18 = getelementptr inbounds nuw %struct.arith_entropy_decoder, ptr %17, i32 0, i32 6
  %19 = load i32, ptr %18, align 4, !tbaa !76
  %20 = icmp eq i32 %19, 0
  br i1 %20, label %21, label %23

21:                                               ; preds = %16
  %22 = load ptr, ptr %3, align 8, !tbaa !3
  call void @process_restart(ptr noundef %22)
  br label %23

23:                                               ; preds = %21, %16
  %24 = load ptr, ptr %5, align 8, !tbaa !35
  %25 = getelementptr inbounds nuw %struct.arith_entropy_decoder, ptr %24, i32 0, i32 6
  %26 = load i32, ptr %25, align 4, !tbaa !76
  %27 = add i32 %26, -1
  store i32 %27, ptr %25, align 4, !tbaa !76
  br label %28

28:                                               ; preds = %23, %2
  %29 = load ptr, ptr %5, align 8, !tbaa !35
  %30 = getelementptr inbounds nuw %struct.arith_entropy_decoder, ptr %29, i32 0, i32 9
  %31 = getelementptr inbounds [4 x i8], ptr %30, i64 0, i64 0
  store ptr %31, ptr %6, align 8, !tbaa !41
  %32 = load ptr, ptr %3, align 8, !tbaa !3
  %33 = getelementptr inbounds nuw %struct.jpeg_decompress_struct, ptr %32, i32 0, i32 75
  %34 = load i32, ptr %33, align 8, !tbaa !55
  %35 = shl i32 1, %34
  store i32 %35, ptr %7, align 4, !tbaa !40
  store i32 0, ptr %8, align 4, !tbaa !40
  br label %36

36:                                               ; preds = %61, %28
  %37 = load i32, ptr %8, align 4, !tbaa !40
  %38 = load ptr, ptr %3, align 8, !tbaa !3
  %39 = getelementptr inbounds nuw %struct.jpeg_decompress_struct, ptr %38, i32 0, i32 70
  %40 = load i32, ptr %39, align 8, !tbaa !79
  %41 = icmp slt i32 %37, %40
  br i1 %41, label %42, label %64

42:                                               ; preds = %36
  %43 = load ptr, ptr %3, align 8, !tbaa !3
  %44 = load ptr, ptr %6, align 8, !tbaa !41
  %45 = call i32 @arith_decode(ptr noundef %43, ptr noundef %44)
  %46 = icmp ne i32 %45, 0
  br i1 %46, label %47, label %60

47:                                               ; preds = %42
  %48 = load i32, ptr %7, align 4, !tbaa !40
  %49 = load ptr, ptr %4, align 8, !tbaa !77
  %50 = load i32, ptr %8, align 4, !tbaa !40
  %51 = sext i32 %50 to i64
  %52 = getelementptr inbounds ptr, ptr %49, i64 %51
  %53 = load ptr, ptr %52, align 8, !tbaa !80
  %54 = getelementptr inbounds [64 x i16], ptr %53, i64 0
  %55 = getelementptr inbounds [64 x i16], ptr %54, i64 0, i64 0
  %56 = load i16, ptr %55, align 2, !tbaa !84
  %57 = sext i16 %56 to i32
  %58 = or i32 %57, %48
  %59 = trunc i32 %58 to i16
  store i16 %59, ptr %55, align 2, !tbaa !84
  br label %60

60:                                               ; preds = %47, %42
  br label %61

61:                                               ; preds = %60
  %62 = load i32, ptr %8, align 4, !tbaa !40
  %63 = add nsw i32 %62, 1
  store i32 %63, ptr %8, align 4, !tbaa !40
  br label %36, !llvm.loop !90

64:                                               ; preds = %36
  call void @llvm.lifetime.end.p0(i64 4, ptr %8) #3
  call void @llvm.lifetime.end.p0(i64 4, ptr %7) #3
  call void @llvm.lifetime.end.p0(i64 8, ptr %6) #3
  call void @llvm.lifetime.end.p0(i64 8, ptr %5) #3
  ret i32 1
}