; Function Attrs: nounwind uwtable
define internal noundef i32 @decode_mcu_DC_refine(ptr noundef %0, ptr noundef readonly captures(none) %1) #0 {
  %3 = getelementptr inbounds nuw i8, ptr %0, i64 592
  %4 = load ptr, ptr %3, align 8, !tbaa !33
  %5 = getelementptr inbounds nuw i8, ptr %0, i64 368
  %6 = load i32, ptr %5, align 8, !tbaa !68
  %.not = icmp eq i32 %6, 0
  br i1 %.not, label %66, label %7

7:                                                ; preds = %2
  %8 = getelementptr inbounds nuw i8, ptr %4, i64 92
  %9 = load i32, ptr %8, align 4, !tbaa !69
  %10 = icmp eq i32 %9, 0
  br i1 %10, label %11, label %63

11:                                               ; preds = %7
  %12 = getelementptr inbounds nuw i8, ptr %0, i64 584
  %13 = load ptr, ptr %12, align 8, !tbaa !70
  %14 = getelementptr inbounds nuw i8, ptr %13, i64 16
  %15 = load ptr, ptr %14, align 8, !tbaa !71
  %16 = tail call i32 %15(ptr noundef nonnull %0) #3
  %.not.i = icmp eq i32 %16, 0
  br i1 %.not.i, label %17, label %21

17:                                               ; preds = %11
  %18 = load ptr, ptr %0, align 8, !tbaa !49
  %19 = getelementptr inbounds nuw i8, ptr %18, i64 40
  store i32 24, ptr %19, align 8, !tbaa !50
  %20 = load ptr, ptr %18, align 8, !tbaa !52
  tail call void %20(ptr noundef nonnull %0) #3
  br label %21

21:                                               ; preds = %17, %11
  %22 = getelementptr inbounds nuw i8, ptr %0, i64 432
  %23 = load i32, ptr %22, align 8, !tbaa !46
  %24 = icmp sgt i32 %23, 0
  br i1 %24, label %.lr.ph.i, label %process_restart.exit

.lr.ph.i:                                         ; preds = %21
  %25 = getelementptr inbounds nuw i8, ptr %0, i64 440
  %26 = getelementptr inbounds nuw i8, ptr %0, i64 312
  %27 = getelementptr inbounds nuw i8, ptr %0, i64 524
  %28 = getelementptr inbounds nuw i8, ptr %0, i64 532
  %29 = getelementptr inbounds nuw i8, ptr %4, i64 96
  %30 = getelementptr inbounds nuw i8, ptr %4, i64 60
  %31 = getelementptr inbounds nuw i8, ptr %4, i64 76
  %32 = getelementptr inbounds nuw i8, ptr %4, i64 224
  br label %33

33:                                               ; preds = %.thread.thread.i, %.lr.ph.i
  %indvars.iv.i = phi i64 [ 0, %.lr.ph.i ], [ %indvars.iv.next.i, %.thread.thread.i ]
  %34 = getelementptr inbounds nuw [4 x ptr], ptr %25, i64 0, i64 %indvars.iv.i
  %35 = load ptr, ptr %34, align 8, !tbaa !53
  %36 = load i32, ptr %26, align 8, !tbaa !38
  %.not28.i = icmp eq i32 %36, 0
  br i1 %.not28.i, label %43, label %37

37:                                               ; preds = %33
  %38 = load i32, ptr %27, align 4, !tbaa !44
  %39 = icmp eq i32 %38, 0
  br i1 %39, label %40, label %.thread.thread35.i

40:                                               ; preds = %37
  %41 = load i32, ptr %28, align 4, !tbaa !47
  %42 = icmp eq i32 %41, 0
  br i1 %42, label %43, label %.thread.thread.i

43:                                               ; preds = %40, %33
  %44 = getelementptr inbounds nuw i8, ptr %35, i64 20
  %45 = load i32, ptr %44, align 4, !tbaa !62
  %46 = sext i32 %45 to i64
  %47 = getelementptr inbounds [16 x ptr], ptr %29, i64 0, i64 %46
  %48 = load ptr, ptr %47, align 8, !tbaa !63
  tail call void @llvm.memset.p0.i64(ptr noundef nonnull align 1 dereferenceable(64) %48, i8 0, i64 64, i1 false)
  %49 = getelementptr inbounds nuw [4 x i32], ptr %30, i64 0, i64 %indvars.iv.i
  store i32 0, ptr %49, align 4, !tbaa !41
  %50 = getelementptr inbounds nuw [4 x i32], ptr %31, i64 0, i64 %indvars.iv.i
  store i32 0, ptr %50, align 4, !tbaa !41
  %.pre.i = load i32, ptr %26, align 8, !tbaa !38
  %51 = icmp eq i32 %.pre.i, 0
  br i1 %51, label %.thread.thread35.i, label %.thread.i

.thread.i:                                        ; preds = %43
  %.pr.i = load i32, ptr %27, align 4, !tbaa !44
  %.not30.i = icmp eq i32 %.pr.i, 0
  br i1 %.not30.i, label %.thread.thread.i, label %.thread.thread35.i

.thread.thread35.i:                               ; preds = %.thread.i, %43, %37
  %52 = getelementptr inbounds nuw i8, ptr %35, i64 24
  %53 = load i32, ptr %52, align 8, !tbaa !64
  %54 = sext i32 %53 to i64
  %55 = getelementptr inbounds [16 x ptr], ptr %32, i64 0, i64 %54
  %56 = load ptr, ptr %55, align 8, !tbaa !63
  tail call void @llvm.memset.p0.i64(ptr noundef nonnull align 1 dereferenceable(256) %56, i8 0, i64 256, i1 false)
  br label %.thread.thread.i

.thread.thread.i:                                 ; preds = %.thread.thread35.i, %.thread.i, %40
  %indvars.iv.next.i = add nuw nsw i64 %indvars.iv.i, 1
  %57 = load i32, ptr %22, align 8, !tbaa !46
  %58 = sext i32 %57 to i64
  %59 = icmp slt i64 %indvars.iv.next.i, %58
  br i1 %59, label %33, label %process_restart.exit, !llvm.loop !73

process_restart.exit:                             ; preds = %.thread.thread.i, %21
  %60 = getelementptr inbounds nuw i8, ptr %4, i64 40
  %61 = getelementptr inbounds nuw i8, ptr %4, i64 56
  tail call void @llvm.memset.p0.i64(ptr noundef nonnull align 8 dereferenceable(16) %60, i8 0, i64 16, i1 false)
  store i32 -16, ptr %61, align 8, !tbaa !66
  %62 = load i32, ptr %5, align 8, !tbaa !68
  br label %63

63:                                               ; preds = %process_restart.exit, %7
  %64 = phi i32 [ %62, %process_restart.exit ], [ %9, %7 ]
  %65 = add i32 %64, -1
  store i32 %65, ptr %8, align 4, !tbaa !69
  br label %66

66:                                               ; preds = %63, %2
  %67 = getelementptr inbounds nuw i8, ptr %4, i64 352
  %68 = getelementptr inbounds nuw i8, ptr %0, i64 480
  %69 = load i32, ptr %68, align 8, !tbaa !74
  %70 = icmp sgt i32 %69, 0
  br i1 %70, label %.lr.ph, label %._crit_edge

.lr.ph:                                           ; preds = %66
  %71 = getelementptr inbounds nuw i8, ptr %0, i64 536
  %72 = load i32, ptr %71, align 8, !tbaa !48
  %73 = shl nuw i32 1, %72
  %74 = trunc i32 %73 to i16
  br label %75

75:                                               ; preds = %.lr.ph, %82
  %indvars.iv = phi i64 [ 0, %.lr.ph ], [ %indvars.iv.next, %82 ]
  %76 = tail call fastcc i32 @arith_decode(ptr noundef nonnull %0, ptr noundef nonnull %67)
  %.not14 = icmp eq i32 %76, 0
  br i1 %.not14, label %82, label %77

77:                                               ; preds = %75
  %78 = getelementptr inbounds nuw ptr, ptr %1, i64 %indvars.iv
  %79 = load ptr, ptr %78, align 8, !tbaa !75
  %80 = load i16, ptr %79, align 2, !tbaa !79
  %81 = or i16 %80, %74
  store i16 %81, ptr %79, align 2, !tbaa !79
  br label %82

82:                                               ; preds = %75, %77
  %indvars.iv.next = add nuw nsw i64 %indvars.iv, 1
  %83 = load i32, ptr %68, align 8, !tbaa !74
  %84 = sext i32 %83 to i64
  %85 = icmp slt i64 %indvars.iv.next, %84
  br i1 %85, label %75, label %._crit_edge, !llvm.loop !85

._crit_edge:                                      ; preds = %82, %66
  ret i32 1
}